; Function Attrs: null_pointer_is_valid sspstrong uwtable
define internal range(i32 0, 3) i32 @match_wide(ptr noundef captures(none) %0, ptr noundef readonly captures(none) %1, ptr noundef %2, ptr noundef readonly captures(none) %3) #1 {
  %5 = alloca i32, align 4
  %6 = alloca ptr, align 8
  %7 = load ptr, ptr %3, align 8
  %8 = getelementptr inbounds nuw i8, ptr %3, i64 8
  %9 = load i64, ptr %8, align 8
  call void @llvm.lifetime.start.p0(i64 4, ptr nonnull %5) #23
  call void @llvm.lifetime.start.p0(i64 8, ptr nonnull %6) #23
  %10 = getelementptr inbounds nuw i8, ptr %0, i64 224
  %11 = load ptr, ptr %10, align 8
  %12 = getelementptr inbounds nuw i8, ptr %1, i64 24
  %13 = load i64, ptr %12, align 8
  %14 = call zeroext i1 @wtap_seek_read(ptr noundef %11, i64 noundef %13, ptr noundef %2, ptr noundef nonnull %5, ptr noundef nonnull %6)
  br i1 %14, label %19, label %cf_read_record.exit

cf_read_record.exit:                              ; preds = %4
  %15 = getelementptr inbounds nuw i8, ptr %0, i64 16
  %16 = load ptr, ptr %15, align 8
  %17 = load i32, ptr %5, align 4
  %18 = load ptr, ptr %6, align 8
  call void @report_cfile_read_failure(ptr noundef %16, i32 noundef %17, ptr noundef %18)
  call void @llvm.lifetime.end.p0(i64 8, ptr nonnull %6) #23
  call void @llvm.lifetime.end.p0(i64 4, ptr nonnull %5) #23
  br label %.loopexit

19:                                               ; preds = %4
  call void @llvm.lifetime.end.p0(i64 8, ptr nonnull %6) #23
  call void @llvm.lifetime.end.p0(i64 4, ptr nonnull %5) #23
  %20 = getelementptr inbounds nuw i8, ptr %1, i64 12
  %21 = load i32, ptr %20, align 4
  %22 = getelementptr inbounds nuw i8, ptr %2, i64 280
  %.val = load ptr, ptr %22, align 8
  %23 = getelementptr i8, ptr %2, i64 296
  %.val59 = load i64, ptr %23, align 8
  %24 = getelementptr i8, ptr %.val, i64 %.val59
  %25 = zext i32 %21 to i64
  %26 = getelementptr i8, ptr %24, i64 %25
  %27 = getelementptr inbounds nuw i8, ptr %0, i64 188
  %28 = load i32, ptr %27, align 4
  %.not = icmp eq i32 %28, 0
  %29 = getelementptr inbounds nuw i8, ptr %0, i64 184
  %30 = load i32, ptr %29, align 8
  %.not56 = icmp eq i32 %30, 0
  %or.cond77 = select i1 %.not, i1 %.not56, i1 false
  %31 = add i32 %30, 1
  %32 = zext i32 %31 to i64
  %.050.idx = select i1 %or.cond77, i64 0, i64 %32
  %.050 = getelementptr i8, ptr %24, i64 %.050.idx
  %33 = icmp ult ptr %.050, %26
  br i1 %33, label %.lr.ph68, label %.loopexit

.lr.ph68:                                         ; preds = %19
  %34 = load i8, ptr %7, align 1
  %35 = zext i8 %34 to i32
  %36 = ptrtoint ptr %26 to i64
  %37 = trunc i64 %9 to i32
  %38 = shl i32 %37, 1
  br label %39

39:                                               ; preds = %.lr.ph68, %._crit_edge
  %.166 = phi ptr [ %.050, %.lr.ph68 ], [ %70, %._crit_edge ]
  %40 = ptrtoint ptr %.166 to i64
  %41 = sub i64 %36, %40
  %42 = call ptr @memchr(ptr noundef %.166, i32 noundef %35, i64 noundef %41) #26
  %43 = icmp eq ptr %42, null
  br i1 %43, label %.loopexit, label %.preheader

.preheader:                                       ; preds = %39
  %44 = icmp ult ptr %42, %26
  br i1 %44, label %.lr.ph, label %._crit_edge

.lr.ph:                                           ; preds = %.preheader, %64
  %45 = phi ptr [ %68, %64 ], [ %42, %.preheader ]
  %.062 = phi i64 [ %51, %64 ], [ 0, %.preheader ]
  %.04861 = phi i32 [ %66, %64 ], [ 0, %.preheader ]
  %46 = load i8, ptr %45, align 1
  %47 = getelementptr i8, ptr %7, i64 %.062
  %48 = load i8, ptr %47, align 1
  %49 = icmp eq i8 %46, %48
  br i1 %49, label %50, label %._crit_edge

50:                                               ; preds = %.lr.ph
  %51 = add i64 %.062, 1
  %52 = icmp eq i64 %51, %9
  br i1 %52, label %53, label %60

53:                                               ; preds = %50
  %54 = ptrtoint ptr %42 to i64
  %55 = ptrtoint ptr %24 to i64
  %56 = sub i64 %54, %55
  %57 = trunc i64 %56 to i32
  %58 = getelementptr inbounds nuw i8, ptr %0, i64 184
  store i32 %57, ptr %58, align 8
  %59 = add i32 %38, -1
  store i32 %59, ptr %27, align 4
  br label %.loopexit

60:                                               ; preds = %50
  %61 = or disjoint i32 %.04861, 1
  %62 = zext i32 %61 to i64
  %63 = getelementptr i8, ptr %42, i64 %62
  %.not57 = icmp ult ptr %63, %26
  br i1 %.not57, label %64, label %._crit_edge

64:                                               ; preds = %60
  %65 = load i8, ptr %63, align 1
  %.not58 = icmp eq i8 %65, 0
  %66 = add i32 %.04861, 2
  %67 = zext i32 %66 to i64
  %68 = getelementptr i8, ptr %42, i64 %67
  %69 = icmp ult ptr %68, %26
  %or.cond = select i1 %.not58, i1 %69, i1 false
  br i1 %or.cond, label %.lr.ph, label %._crit_edge, !llvm.loop !49

._crit_edge:                                      ; preds = %.lr.ph, %60, %64, %.preheader
  %70 = getelementptr i8, ptr %42, i64 1
  %71 = icmp ult ptr %70, %26
  br i1 %71, label %39, label %.loopexit, !llvm.loop !50

.loopexit:                                        ; preds = %._crit_edge, %39, %19, %cf_read_record.exit, %53
  %.047 = phi i32 [ 2, %cf_read_record.exit ], [ 1, %53 ], [ 0, %19 ], [ 0, %39 ], [ 0, %._crit_edge ]
  ret i32 %.047
}